target datalayout = "e-m:e-p270:32:32-p271:32:32-p272:64:64-i64:64-i128:128-f80:128-n8:16:32:64-S128"
target triple = "x86_64-pc-linux-gnu"

%"class.gmx::SelectionTreeElement" = type { i32, %struct.gmx_ana_selvalue_t, ptr, i32, %union.anon.0, ptr, ptr, %"class.std::shared_ptr", %"class.std::shared_ptr", %"class.std::__cxx11::basic_string", %"struct.gmx::SelectionLocation" }
%struct.gmx_ana_selvalue_t = type { i32, i32, %union.anon, i32 }
%union.anon = type { ptr }
%union.anon.0 = type { %struct.anon }
%struct.anon = type { ptr, ptr, ptr, ptr }
%"class.std::shared_ptr" = type { %"class.std::__shared_ptr" }
%"class.std::__shared_ptr" = type { ptr, %"class.std::__shared_count" }
%"class.std::__shared_count" = type { ptr }
%"class.std::__cxx11::basic_string" = type { %"struct.std::__cxx11::basic_string<char>::_Alloc_hider", i64, %union.anon.2 }
%"struct.std::__cxx11::basic_string<char>::_Alloc_hider" = type { ptr }
%union.anon.2 = type { i64, [8 x i8] }
%"struct.gmx::SelectionLocation" = type { i32, i32 }

; Function Attrs: mustprogress nounwind uwtable
define linkonce_odr void @_ZNSt14__shared_countILN9__gnu_cxx12_Lock_policyE2EEC2Ev(ptr noundef nonnull align 8 dereferenceable(8) %0) unnamed_addr #0 comdat align 2 {
  %2 = alloca ptr, align 8
  store ptr %0, ptr %2, align 8
  %3 = load ptr, ptr %2, align 8
  %4 = getelementptr inbounds %"class.std::__shared_count", ptr %3, i32 0, i32 0
  store ptr null, ptr %4, align 8
  ret void
}

; Function Attrs: mustprogress nounwind uwtable
define linkonce_odr void @_ZNSt12__shared_ptrIN3gmx20SelectionTreeElementELN9__gnu_cxx12_Lock_policyE2EEC2Ev(ptr noundef nonnull align 8 dereferenceable(16) %0) unnamed_addr #0 comdat align 2 {
  %2 = alloca ptr, align 8
  store ptr %0, ptr %2, align 8
  %3 = load ptr, ptr %2, align 8
  %4 = getelementptr inbounds %"class.std::__shared_ptr", ptr %3, i32 0, i32 0
  store ptr null, ptr %4, align 8
  %5 = getelementptr inbounds %"class.std::__shared_ptr", ptr %3, i32 0, i32 1
  call void @_ZNSt14__shared_countILN9__gnu_cxx12_Lock_policyE2EEC2Ev(ptr noundef nonnull align 8 dereferenceable(8) %5) #11
  ret void
}

; Function Attrs: mustprogress nounwind uwtable
define linkonce_odr void @_ZNSt10shared_ptrIN3gmx20SelectionTreeElementEEC2Ev(ptr noundef nonnull align 8 dereferenceable(16) %0) unnamed_addr #0 comdat align 2 {
  %2 = alloca ptr, align 8
  store ptr %0, ptr %2, align 8
  %3 = load ptr, ptr %2, align 8
  call void @_ZNSt12__shared_ptrIN3gmx20SelectionTreeElementELN9__gnu_cxx12_Lock_policyE2EEC2Ev(ptr noundef nonnull align 8 dereferenceable(16) %3) #11
  ret void
}

; Function Attrs: mustprogress uwtable
define void @_ZN3gmx20SelectionTreeElementC2E11e_selelem_tRKNS_17SelectionLocationE(ptr noundef nonnull align 8 dereferenceable(168) %0, i32 noundef %1, ptr noundef nonnull align 4 dereferenceable(8) %2) unnamed_addr #1 align 2 personality ptr @__gxx_personality_v0 {
  %4 = alloca ptr, align 8
  %5 = alloca i32, align 4
  %6 = alloca ptr, align 8
  %7 = alloca ptr, align 8
  %8 = alloca i32, align 4
  store ptr %0, ptr %4, align 8
  store i32 %1, ptr %5, align 4
  store ptr %2, ptr %6, align 8
  %9 = load ptr, ptr %4, align 8
  %10 = getelementptr inbounds %"class.gmx::SelectionTreeElement", ptr %9, i32 0, i32 7
  call void @_ZNSt10shared_ptrIN3gmx20SelectionTreeElementEEC2Ev(ptr noundef nonnull align 8 dereferenceable(16) %10) #11
  %11 = getelementptr inbounds %"class.gmx::SelectionTreeElement", ptr %9, i32 0, i32 8
  call void @_ZNSt10shared_ptrIN3gmx20SelectionTreeElementEEC2Ev(ptr noundef nonnull align 8 dereferenceable(16) %11) #11
  %12 = getelementptr inbounds %"class.gmx::SelectionTreeElement", ptr %9, i32 0, i32 9
  call void @_ZNSt7__cxx1112basic_stringIcSt11char_traitsIcESaIcEEC1Ev(ptr noundef nonnull align 8 dereferenceable(32) %12) #11
  %13 = getelementptr inbounds %"class.gmx::SelectionTreeElement", ptr %9, i32 0, i32 10
  %14 = load ptr, ptr %6, align 8
  call void @llvm.memcpy.p0.p0.i64(ptr align 8 %13, ptr align 4 %14, i64 8, i1 false)
  %15 = load i32, ptr %5, align 4
  %16 = getelementptr inbounds %"class.gmx::SelectionTreeElement", ptr %9, i32 0, i32 0
  store i32 %15, ptr %16, align 8
  %17 = load i32, ptr %5, align 4
  %18 = icmp ne i32 %17, 4
  %19 = select i1 %18, i32 256, i32 0
  %20 = getelementptr inbounds %"class.gmx::SelectionTreeElement", ptr %9, i32 0, i32 3
  store i32 %19, ptr %20, align 8
  %21 = load i32, ptr %5, align 4
  %22 = icmp eq i32 %21, 2
  br i1 %22, label %23, label %29

23:                                               ; preds = %3
  %24 = getelementptr inbounds %"class.gmx::SelectionTreeElement", ptr %9, i32 0, i32 1
  %25 = getelementptr inbounds %struct.gmx_ana_selvalue_t, ptr %24, i32 0, i32 0
  store i32 5, ptr %25, align 8
  %26 = getelementptr inbounds %"class.gmx::SelectionTreeElement", ptr %9, i32 0, i32 3
  %27 = load i32, ptr %26, align 8
  %28 = or i32 %27, 512
  store i32 %28, ptr %26, align 8
  br label %32

29:                                               ; preds = %3
  %30 = getelementptr inbounds %"class.gmx::SelectionTreeElement", ptr %9, i32 0, i32 1
  %31 = getelementptr inbounds %struct.gmx_ana_selvalue_t, ptr %30, i32 0, i32 0
  store i32 0, ptr %31, align 8
  br label %32

32:                                               ; preds = %29, %23
  %33 = getelementptr inbounds %"class.gmx::SelectionTreeElement", ptr %9, i32 0, i32 1
  invoke void @_Z19_gmx_selvalue_clearP18gmx_ana_selvalue_t(ptr noundef %33)
          to label %34 unwind label %39

34:                                               ; preds = %32
  %35 = getelementptr inbounds %"class.gmx::SelectionTreeElement", ptr %9, i32 0, i32 4
  call void @llvm.memset.p0.i64(ptr align 8 %35, i8 0, i64 32, i1 false)
  %36 = getelementptr inbounds %"class.gmx::SelectionTreeElement", ptr %9, i32 0, i32 2
  store ptr null, ptr %36, align 8
  %37 = getelementptr inbounds %"class.gmx::SelectionTreeElement", ptr %9, i32 0, i32 5
  store ptr null, ptr %37, align 8
  %38 = getelementptr inbounds %"class.gmx::SelectionTreeElement", ptr %9, i32 0, i32 6
  store ptr null, ptr %38, align 8
  ret void

39:                                               ; preds = %32
  %40 = landingpad { ptr, i32 }
          cleanup
  %41 = extractvalue { ptr, i32 } %40, 0
  store ptr %41, ptr %7, align 8
  %42 = extractvalue { ptr, i32 } %40, 1
  store i32 %42, ptr %8, align 4
  call void @_ZNSt7__cxx1112basic_stringIcSt11char_traitsIcESaIcEED1Ev(ptr noundef nonnull align 8 dereferenceable(32) %12) #11
  call void @_ZNSt10shared_ptrIN3gmx20SelectionTreeElementEED2Ev(ptr noundef nonnull align 8 dereferenceable(16) %11) #11
  call void @_ZNSt10shared_ptrIN3gmx20SelectionTreeElementEED2Ev(ptr noundef nonnull align 8 dereferenceable(16) %10) #11
  br label %43

43:                                               ; preds = %39
  %44 = load ptr, ptr %7, align 8
  %45 = load i32, ptr %8, align 4
  %46 = insertvalue { ptr, i32 } poison, ptr %44, 0
  %47 = insertvalue { ptr, i32 } %46, i32 %45, 1
  resume { ptr, i32 } %47
}