; Function Attrs: mustprogress uwtable
define void @_ZN3gmx20SelectionTreeElementC2E11e_selelem_tRKNS_17SelectionLocationE(ptr noundef nonnull align 8 dereferenceable(168) %0, i32 noundef %1, ptr nocapture noundef nonnull readonly align 4 dereferenceable(8) %2) unnamed_addr #1 align 2 personality ptr @__gxx_personality_v0 {
  %4 = getelementptr inbounds i8, ptr %0, i64 96
  %5 = getelementptr inbounds i8, ptr %0, i64 128
  tail call void @llvm.memset.p0.i64(ptr noundef nonnull align 8 dereferenceable(32) %4, i8 0, i64 32, i1 false)
  tail call void @_ZNSt7__cxx1112basic_stringIcSt11char_traitsIcESaIcEEC1Ev(ptr noundef nonnull align 8 dereferenceable(32) %5) #17
  %6 = getelementptr inbounds i8, ptr %0, i64 160
  %7 = load i64, ptr %2, align 4
  store i64 %7, ptr %6, align 8
  store i32 %1, ptr %0, align 8
  %.not = icmp eq i32 %1, 4
  %8 = select i1 %.not, i32 0, i32 256
  %9 = getelementptr inbounds i8, ptr %0, i64 40
  %10 = icmp eq i32 %1, 2
  %spec.store.select = select i1 %10, i32 768, i32 %8
  store i32 %spec.store.select, ptr %9, align 8
  %spec.select = select i1 %10, i32 5, i32 0
  %11 = getelementptr inbounds i8, ptr %0, i64 8
  store i32 %spec.select, ptr %11, align 8
  invoke void @_Z19_gmx_selvalue_clearP18gmx_ana_selvalue_t(ptr noundef nonnull %11)
          to label %12 unwind label %15

12:                                               ; preds = %3
  %13 = getelementptr inbounds i8, ptr %0, i64 48
  %14 = getelementptr inbounds i8, ptr %0, i64 32
  store ptr null, ptr %14, align 8
  tail call void @llvm.memset.p0.i64(ptr noundef nonnull align 8 dereferenceable(48) %13, i8 0, i64 48, i1 false)
  ret void

15:                                               ; preds = %3
  %16 = landingpad { ptr, i32 }
          cleanup
  %17 = getelementptr inbounds i8, ptr %0, i64 112
  tail call void @_ZNSt7__cxx1112basic_stringIcSt11char_traitsIcESaIcEED1Ev(ptr noundef nonnull align 8 dereferenceable(32) %5) #17
  tail call void @_ZNSt10shared_ptrIN3gmx20SelectionTreeElementEED2Ev(ptr noundef nonnull align 8 dereferenceable(16) %17) #17
  tail call void @_ZNSt10shared_ptrIN3gmx20SelectionTreeElementEED2Ev(ptr noundef nonnull align 8 dereferenceable(16) %4) #17
  resume { ptr, i32 } %16
}